target datalayout = "e-m:e-p270:32:32-p271:32:32-p272:64:64-i64:64-i128:128-f80:128-n8:16:32:64-S128"
target triple = "x86_64-pc-linux-gnu"

@.str.13 = private unnamed_addr constant [17 x i8] c"/proc/self/fd/%u\00", align 1
@.str.14 = private unnamed_addr constant [28 x i8] c"%s: readlink(%s) failed: %m\00", align 1
@__func__.fd_resolve_path = private unnamed_addr constant [16 x i8] c"fd_resolve_path\00", align 1
@.str.15 = private unnamed_addr constant [51 x i8] c"%s: rejecting readlink(%s) for possible truncation\00", align 1

; Function Attrs: nounwind uwtable
define dso_local ptr @fd_resolve_path(i32 noundef %0) #0 {
  %2 = alloca i32, align 4
  %3 = alloca ptr, align 8
  %4 = alloca ptr, align 8
  %5 = alloca [4097 x i8], align 16
  %6 = alloca i64, align 8
  store i32 %0, ptr %2, align 4
  call void @llvm.lifetime.start.p0(i64 8, ptr %3) #10
  store ptr null, ptr %3, align 8
  call void @llvm.lifetime.start.p0(i64 8, ptr %4) #10
  store ptr null, ptr %4, align 8
  call void @llvm.lifetime.start.p0(i64 4097, ptr %5) #10
  call void @llvm.lifetime.start.p0(i64 8, ptr %6) #10
  %7 = load i32, ptr %2, align 4
  %8 = call ptr (ptr, ...) @xstrdup_printf(ptr noundef @.str.13, i32 noundef %7)
  store ptr %8, ptr %4, align 8
  %9 = getelementptr inbounds [4097 x i8], ptr %5, i64 0, i64 0
  call void @llvm.memset.p0.i64(ptr align 16 %9, i8 0, i64 4097, i1 false)
  %10 = load ptr, ptr %4, align 8
  %11 = getelementptr inbounds [4097 x i8], ptr %5, i64 0, i64 0
  %12 = call i64 @readlink(ptr noundef %10, ptr noundef %11, i64 noundef 4096) #10
  store i64 %12, ptr %6, align 8
  %13 = load i64, ptr %6, align 8
  %14 = icmp slt i64 %13, 0
  br i1 %14, label %15, label %27

15:                                               ; preds = %1
  br label %16

16:                                               ; preds = %15
  br label %17

17:                                               ; preds = %16
  %18 = call i32 @get_log_level()
  %19 = icmp sge i32 %18, 5
  br i1 %19, label %20, label %22

20:                                               ; preds = %17
  %21 = load ptr, ptr %4, align 8
  call void (i32, ptr, ...) @log_var(i32 noundef 5, ptr noundef @.str.14, ptr noundef @__func__.fd_resolve_path, ptr noundef %21)
  br label %22

22:                                               ; preds = %20, %17
  br label %23

23:                                               ; preds = %22
  br label %24

24:                                               ; preds = %23
  br label %25

25:                                               ; preds = %24
  br label %26

26:                                               ; preds = %25
  br label %46

27:                                               ; preds = %1
  %28 = load i64, ptr %6, align 8
  %29 = icmp sge i64 %28, 4096
  br i1 %29, label %30, label %42

30:                                               ; preds = %27
  br label %31

31:                                               ; preds = %30
  br label %32

32:                                               ; preds = %31
  %33 = call i32 @get_log_level()
  %34 = icmp sge i32 %33, 5
  br i1 %34, label %35, label %37

35:                                               ; preds = %32
  %36 = load ptr, ptr %4, align 8
  call void (i32, ptr, ...) @log_var(i32 noundef 5, ptr noundef @.str.15, ptr noundef @__func__.fd_resolve_path, ptr noundef %36)
  br label %37

37:                                               ; preds = %35, %32
  br label %38

38:                                               ; preds = %37
  br label %39

39:                                               ; preds = %38
  br label %40

40:                                               ; preds = %39
  br label %41

41:                                               ; preds = %40
  br label %45

42:                                               ; preds = %27
  %43 = getelementptr inbounds [4097 x i8], ptr %5, i64 0, i64 0
  %44 = call ptr @xstrdup(ptr noundef %43)
  store ptr %44, ptr %3, align 8
  br label %45

45:                                               ; preds = %42, %41
  br label %46

46:                                               ; preds = %45, %26
  call void @slurm_xfree(ptr noundef %4)
  %47 = load ptr, ptr %3, align 8
  call void @llvm.lifetime.end.p0(i64 8, ptr %6) #10
  call void @llvm.lifetime.end.p0(i64 4097, ptr %5) #10
  call void @llvm.lifetime.end.p0(i64 8, ptr %4) #10
  call void @llvm.lifetime.end.p0(i64 8, ptr %3) #10
  ret ptr %47
}