; Function Attrs: nounwind uwtable
define dso_local ptr @fd_resolve_path(i32 noundef %0) local_unnamed_addr #0 {
  %2 = alloca ptr, align 8
  %3 = alloca [4097 x i8], align 16
  call void @llvm.lifetime.start.p0(i64 8, ptr nonnull %2) #10
  call void @llvm.lifetime.start.p0(i64 4097, ptr nonnull %3) #10
  %4 = tail call ptr (ptr, ...) @xstrdup_printf(ptr noundef nonnull @.str.13, i32 noundef %0) #10
  store ptr %4, ptr %2, align 8
  call void @llvm.memset.p0.i64(ptr noundef nonnull align 16 dereferenceable(4097) %3, i8 0, i64 4097, i1 false)
  %5 = call i64 @readlink(ptr noundef %4, ptr noundef nonnull %3, i64 noundef 4096) #10
  %6 = icmp slt i64 %5, 0
  br i1 %6, label %7, label %11

7:                                                ; preds = %1
  %8 = tail call i32 @get_log_level() #10
  %9 = icmp sgt i32 %8, 4
  br i1 %9, label %10, label %19

10:                                               ; preds = %7
  tail call void (i32, ptr, ...) @log_var(i32 noundef 5, ptr noundef nonnull @.str.14, ptr noundef nonnull @__func__.fd_resolve_path, ptr noundef %4) #10
  br label %19

11:                                               ; preds = %1
  %12 = icmp samesign ugt i64 %5, 4095
  br i1 %12, label %13, label %17

13:                                               ; preds = %11
  %14 = tail call i32 @get_log_level() #10
  %15 = icmp sgt i32 %14, 4
  br i1 %15, label %16, label %19

16:                                               ; preds = %13
  tail call void (i32, ptr, ...) @log_var(i32 noundef 5, ptr noundef nonnull @.str.15, ptr noundef nonnull @__func__.fd_resolve_path, ptr noundef %4) #10
  br label %19

17:                                               ; preds = %11
  %18 = call ptr @xstrdup(ptr noundef nonnull %3) #10
  br label %19

19:                                               ; preds = %17, %16, %13, %7, %10
  %.0 = phi ptr [ null, %10 ], [ null, %7 ], [ null, %16 ], [ null, %13 ], [ %18, %17 ]
  call void @slurm_xfree(ptr noundef nonnull %2) #10
  call void @llvm.lifetime.end.p0(i64 4097, ptr nonnull %3) #10
  call void @llvm.lifetime.end.p0(i64 8, ptr nonnull %2) #10
  ret ptr %.0
}